target datalayout = "e-m:e-p270:32:32-p271:32:32-p272:64:64-i64:64-i128:128-f80:128-n8:16:32:64-S128"
target triple = "x86_64-pc-linux-gnu"

%struct.onas_scan_event = type <{ ptr, i64, ptr, i32, ptr, i8, i64, i32, i64, i64, i8 }>
%struct.onas_context = type <{ ptr, ptr, i32, i32, i32, i32, i64, i8, i8, i8, i64, i64, i32, i32, i32, i32, i64, i32 }>
%struct.optstruct = type { ptr, ptr, ptr, i64, i32, i32, i32, i32, ptr, ptr, ptr }

@.str.6 = private unnamed_addr constant [58 x i8] c"ClamScThread: context and scan event struct are null ...\0A\00", align 1
@.str.7 = private unnamed_addr constant [8 x i8] c"TCPAddr\00", align 1
@.str.8 = private unnamed_addr constant [12 x i8] c"LocalSocket\00", align 1

; Function Attrs: nounwind uwtable
define dso_local i32 @onas_map_context_info_to_event_data(ptr noundef %0, ptr noundef %1) #0 {
  %3 = alloca i32, align 4
  %4 = alloca ptr, align 8
  %5 = alloca ptr, align 8
  store ptr %0, ptr %4, align 8, !tbaa !35
  store ptr %1, ptr %5, align 8, !tbaa !37
  %6 = load ptr, ptr %4, align 8, !tbaa !35
  %7 = icmp eq ptr null, %6
  br i1 %7, label %15, label %8

8:                                                ; preds = %2
  %9 = load ptr, ptr %5, align 8, !tbaa !37
  %10 = icmp eq ptr null, %9
  br i1 %10, label %15, label %11

11:                                               ; preds = %8
  %12 = load ptr, ptr %5, align 8, !tbaa !37
  %13 = load ptr, ptr %12, align 8, !tbaa !8
  %14 = icmp eq ptr null, %13
  br i1 %14, label %15, label %17

15:                                               ; preds = %11, %8, %2
  %16 = call i32 (i32, ptr, ...) @logg(i32 noundef 2, ptr noundef @.str.6)
  store i32 2, ptr %3, align 4
  br label %120

17:                                               ; preds = %11
  %18 = load ptr, ptr %4, align 8, !tbaa !35
  %19 = getelementptr inbounds nuw %struct.onas_context, ptr %18, i32 0, i32 12
  %20 = load i32, ptr %19, align 1, !tbaa !39
  %21 = load ptr, ptr %5, align 8, !tbaa !37
  %22 = load ptr, ptr %21, align 8, !tbaa !8
  %23 = getelementptr inbounds nuw %struct.onas_scan_event, ptr %22, i32 0, i32 7
  store i32 %20, ptr %23, align 1, !tbaa !42
  %24 = load ptr, ptr %4, align 8, !tbaa !35
  %25 = getelementptr inbounds nuw %struct.onas_context, ptr %24, i32 0, i32 15
  %26 = load i32, ptr %25, align 1, !tbaa !43
  %27 = sext i32 %26 to i64
  %28 = load ptr, ptr %5, align 8, !tbaa !37
  %29 = load ptr, ptr %28, align 8, !tbaa !8
  %30 = getelementptr inbounds nuw %struct.onas_scan_event, ptr %29, i32 0, i32 9
  store i64 %27, ptr %30, align 1, !tbaa !44
  %31 = load ptr, ptr %4, align 8, !tbaa !35
  %32 = getelementptr inbounds nuw %struct.onas_context, ptr %31, i32 0, i32 3
  %33 = load i32, ptr %32, align 1, !tbaa !45
  %34 = sext i32 %33 to i64
  %35 = load ptr, ptr %5, align 8, !tbaa !37
  %36 = load ptr, ptr %35, align 8, !tbaa !8
  %37 = getelementptr inbounds nuw %struct.onas_scan_event, ptr %36, i32 0, i32 8
  store i64 %34, ptr %37, align 1, !tbaa !46
  %38 = load ptr, ptr %4, align 8, !tbaa !35
  %39 = getelementptr inbounds nuw %struct.onas_context, ptr %38, i32 0, i32 5
  %40 = load i32, ptr %39, align 1, !tbaa !47
  %41 = load ptr, ptr %5, align 8, !tbaa !37
  %42 = load ptr, ptr %41, align 8, !tbaa !8
  %43 = getelementptr inbounds nuw %struct.onas_scan_event, ptr %42, i32 0, i32 3
  store i32 %40, ptr %43, align 1, !tbaa !48
  %44 = load ptr, ptr %4, align 8, !tbaa !35
  %45 = getelementptr inbounds nuw %struct.onas_context, ptr %44, i32 0, i32 10
  %46 = load i64, ptr %45, align 1, !tbaa !49
  %47 = load ptr, ptr %5, align 8, !tbaa !37
  %48 = load ptr, ptr %47, align 8, !tbaa !8
  %49 = getelementptr inbounds nuw %struct.onas_scan_event, ptr %48, i32 0, i32 6
  store i64 %46, ptr %49, align 1, !tbaa !31
  %50 = load ptr, ptr %4, align 8, !tbaa !35
  %51 = getelementptr inbounds nuw %struct.onas_context, ptr %50, i32 0, i32 8
  %52 = load i8, ptr %51, align 1, !tbaa !50
  %53 = load ptr, ptr %5, align 8, !tbaa !37
  %54 = load ptr, ptr %53, align 8, !tbaa !8
  %55 = getelementptr inbounds nuw %struct.onas_scan_event, ptr %54, i32 0, i32 5
  store i8 %52, ptr %55, align 1, !tbaa !51
  %56 = load ptr, ptr %4, align 8, !tbaa !35
  %57 = getelementptr inbounds nuw %struct.onas_context, ptr %56, i32 0, i32 7
  %58 = load i8, ptr %57, align 1, !tbaa !52
  %59 = icmp ne i8 %58, 0
  br i1 %59, label %60, label %68

60:                                               ; preds = %17
  %61 = load ptr, ptr %5, align 8, !tbaa !37
  %62 = load ptr, ptr %61, align 8, !tbaa !8
  %63 = getelementptr inbounds nuw %struct.onas_scan_event, ptr %62, i32 0, i32 10
  %64 = load i8, ptr %63, align 1, !tbaa !16
  %65 = zext i8 %64 to i32
  %66 = or i32 %65, 32
  %67 = trunc i32 %66 to i8
  store i8 %67, ptr %63, align 1, !tbaa !16
  br label %68

68:                                               ; preds = %60, %17
  %69 = load ptr, ptr %4, align 8, !tbaa !35
  %70 = getelementptr inbounds nuw %struct.onas_context, ptr %69, i32 0, i32 9
  %71 = load i8, ptr %70, align 1, !tbaa !53
  %72 = icmp ne i8 %71, 0
  br i1 %72, label %73, label %81

73:                                               ; preds = %68
  %74 = load ptr, ptr %5, align 8, !tbaa !37
  %75 = load ptr, ptr %74, align 8, !tbaa !8
  %76 = getelementptr inbounds nuw %struct.onas_scan_event, ptr %75, i32 0, i32 10
  %77 = load i8, ptr %76, align 1, !tbaa !16
  %78 = zext i8 %77 to i32
  %79 = or i32 %78, 64
  %80 = trunc i32 %79 to i8
  store i8 %80, ptr %76, align 1, !tbaa !16
  br label %81

81:                                               ; preds = %73, %68
  %82 = load ptr, ptr %4, align 8, !tbaa !35
  %83 = getelementptr inbounds nuw %struct.onas_context, ptr %82, i32 0, i32 13
  %84 = load i32, ptr %83, align 1, !tbaa !54
  %85 = icmp ne i32 %84, 0
  br i1 %85, label %86, label %109

86:                                               ; preds = %81
  %87 = load ptr, ptr %5, align 8, !tbaa !37
  %88 = load ptr, ptr %87, align 8, !tbaa !8
  %89 = getelementptr inbounds nuw %struct.onas_scan_event, ptr %88, i32 0, i32 10
  %90 = load i8, ptr %89, align 1, !tbaa !16
  %91 = zext i8 %90 to i32
  %92 = or i32 %91, 128
  %93 = trunc i32 %92 to i8
  store i8 %93, ptr %89, align 1, !tbaa !16
  %94 = load ptr, ptr %4, align 8, !tbaa !35
  %95 = getelementptr inbounds nuw %struct.onas_context, ptr %94, i32 0, i32 1
  %96 = load ptr, ptr %95, align 1, !tbaa !55
  %97 = call ptr @optget(ptr noundef %96, ptr noundef @.str.7)
  %98 = getelementptr inbounds nuw %struct.optstruct, ptr %97, i32 0, i32 2
  %99 = load ptr, ptr %98, align 8, !tbaa !56
  %100 = load ptr, ptr %5, align 8, !tbaa !37
  %101 = load ptr, ptr %100, align 8, !tbaa !8
  %102 = getelementptr inbounds nuw %struct.onas_scan_event, ptr %101, i32 0, i32 0
  store ptr %99, ptr %102, align 1, !tbaa !59
  %103 = load ptr, ptr %4, align 8, !tbaa !35
  %104 = getelementptr inbounds nuw %struct.onas_context, ptr %103, i32 0, i32 16
  %105 = load i64, ptr %104, align 1, !tbaa !60
  %106 = load ptr, ptr %5, align 8, !tbaa !37
  %107 = load ptr, ptr %106, align 8, !tbaa !8
  %108 = getelementptr inbounds nuw %struct.onas_scan_event, ptr %107, i32 0, i32 1
  store i64 %105, ptr %108, align 1, !tbaa !61
  br label %119

109:                                              ; preds = %81
  %110 = load ptr, ptr %4, align 8, !tbaa !35
  %111 = getelementptr inbounds nuw %struct.onas_context, ptr %110, i32 0, i32 1
  %112 = load ptr, ptr %111, align 1, !tbaa !55
  %113 = call ptr @optget(ptr noundef %112, ptr noundef @.str.8)
  %114 = getelementptr inbounds nuw %struct.optstruct, ptr %113, i32 0, i32 2
  %115 = load ptr, ptr %114, align 8, !tbaa !56
  %116 = load ptr, ptr %5, align 8, !tbaa !37
  %117 = load ptr, ptr %116, align 8, !tbaa !8
  %118 = getelementptr inbounds nuw %struct.onas_scan_event, ptr %117, i32 0, i32 0
  store ptr %115, ptr %118, align 1, !tbaa !59
  br label %119

119:                                              ; preds = %109, %86
  store i32 0, ptr %3, align 4
  br label %120

120:                                              ; preds = %119, %15
  %121 = load i32, ptr %3, align 4
  ret i32 %121
}