; Function Attrs: nounwind uwtable
define dso_local range(i32 0, 3) i32 @onas_map_context_info_to_event_data(ptr noundef readonly %0, ptr noundef readonly %1) local_unnamed_addr #0 {
  %3 = icmp eq ptr %0, null
  %4 = icmp eq ptr %1, null
  %or.cond = or i1 %3, %4
  br i1 %or.cond, label %8, label %5

5:                                                ; preds = %2
  %6 = load ptr, ptr %1, align 8, !tbaa !27
  %7 = icmp eq ptr %6, null
  br i1 %7, label %8, label %10

8:                                                ; preds = %5, %2
  %9 = tail call i32 (i32, ptr, ...) @logg(i32 noundef 2, ptr noundef nonnull @.str.6) #9
  br label %67

10:                                               ; preds = %5
  %11 = getelementptr inbounds nuw i8, ptr %0, i64 59
  %12 = load i32, ptr %11, align 1, !tbaa !29
  %13 = getelementptr inbounds nuw i8, ptr %6, i64 45
  store i32 %12, ptr %13, align 1, !tbaa !32
  %14 = getelementptr inbounds nuw i8, ptr %0, i64 71
  %15 = load i32, ptr %14, align 1, !tbaa !33
  %16 = sext i32 %15 to i64
  %17 = getelementptr inbounds nuw i8, ptr %6, i64 57
  store i64 %16, ptr %17, align 1, !tbaa !34
  %18 = getelementptr inbounds nuw i8, ptr %0, i64 20
  %19 = load i32, ptr %18, align 1, !tbaa !35
  %20 = sext i32 %19 to i64
  %21 = getelementptr inbounds nuw i8, ptr %6, i64 49
  store i64 %20, ptr %21, align 1, !tbaa !36
  %22 = getelementptr inbounds nuw i8, ptr %0, i64 28
  %23 = load i32, ptr %22, align 1, !tbaa !37
  %24 = getelementptr inbounds nuw i8, ptr %6, i64 24
  store i32 %23, ptr %24, align 1, !tbaa !38
  %25 = getelementptr inbounds nuw i8, ptr %0, i64 43
  %26 = load i64, ptr %25, align 1, !tbaa !39
  %27 = getelementptr inbounds nuw i8, ptr %6, i64 37
  store i64 %26, ptr %27, align 1, !tbaa !22
  %28 = getelementptr inbounds nuw i8, ptr %0, i64 41
  %29 = load i8, ptr %28, align 1, !tbaa !40
  %30 = getelementptr inbounds nuw i8, ptr %6, i64 36
  store i8 %29, ptr %30, align 1, !tbaa !41
  %31 = getelementptr inbounds nuw i8, ptr %0, i64 40
  %32 = load i8, ptr %31, align 1, !tbaa !42
  %.not = icmp eq i8 %32, 0
  br i1 %.not, label %37, label %33

33:                                               ; preds = %10
  %34 = getelementptr inbounds nuw i8, ptr %6, i64 65
  %35 = load i8, ptr %34, align 1, !tbaa !13
  %36 = or i8 %35, 32
  store i8 %36, ptr %34, align 1, !tbaa !13
  br label %37

37:                                               ; preds = %33, %10
  %38 = getelementptr inbounds nuw i8, ptr %0, i64 42
  %39 = load i8, ptr %38, align 1, !tbaa !43
  %.not31 = icmp eq i8 %39, 0
  br i1 %.not31, label %44, label %40

40:                                               ; preds = %37
  %41 = getelementptr inbounds nuw i8, ptr %6, i64 65
  %42 = load i8, ptr %41, align 1, !tbaa !13
  %43 = or i8 %42, 64
  store i8 %43, ptr %41, align 1, !tbaa !13
  br label %44

44:                                               ; preds = %40, %37
  %45 = getelementptr inbounds nuw i8, ptr %0, i64 63
  %46 = load i32, ptr %45, align 1, !tbaa !44
  %.not32 = icmp eq i32 %46, 0
  br i1 %.not32, label %60, label %47

47:                                               ; preds = %44
  %48 = getelementptr inbounds nuw i8, ptr %6, i64 65
  %49 = load i8, ptr %48, align 1, !tbaa !13
  %50 = or i8 %49, -128
  store i8 %50, ptr %48, align 1, !tbaa !13
  %51 = getelementptr inbounds nuw i8, ptr %0, i64 8
  %52 = load ptr, ptr %51, align 1, !tbaa !45
  %53 = tail call ptr @optget(ptr noundef %52, ptr noundef nonnull @.str.7) #9
  %54 = getelementptr inbounds nuw i8, ptr %53, i64 16
  %55 = load ptr, ptr %54, align 8, !tbaa !46
  %56 = load ptr, ptr %1, align 8, !tbaa !27
  store ptr %55, ptr %56, align 1, !tbaa !49
  %57 = getelementptr inbounds nuw i8, ptr %0, i64 75
  %58 = load i64, ptr %57, align 1, !tbaa !50
  %59 = getelementptr inbounds nuw i8, ptr %56, i64 8
  store i64 %58, ptr %59, align 1, !tbaa !51
  br label %67

60:                                               ; preds = %44
  %61 = getelementptr inbounds nuw i8, ptr %0, i64 8
  %62 = load ptr, ptr %61, align 1, !tbaa !45
  %63 = tail call ptr @optget(ptr noundef %62, ptr noundef nonnull @.str.8) #9
  %64 = getelementptr inbounds nuw i8, ptr %63, i64 16
  %65 = load ptr, ptr %64, align 8, !tbaa !46
  %66 = load ptr, ptr %1, align 8, !tbaa !27
  store ptr %65, ptr %66, align 1, !tbaa !49
  br label %67

67:                                               ; preds = %47, %60, %8
  %.0 = phi i32 [ 2, %8 ], [ 0, %60 ], [ 0, %47 ]
  ret i32 %.0
}